Certificate:
    Data:
        Version: 1 (0x0)
        Serial Number: 1 (0x1)
    Signature Algorithm: ecdsa-with-SHA256
        Issuer: C=QQ, O=Org1, CN=TestCA1
        Validity
            Not Before: Jun 18 07:36:13 2019 GMT
            Not After : Jul  1 07:36:13 2047 GMT
        Subject: C=QQ, L=computer, O=Org1, OU=db, CN=localhost
        Subject Public Key Info:
            Public Key Algorithm: id-ecPublicKey
                Public-Key: (256 bit)
                pub: 
                    04:f8:fe:7c:68:b0:51:37:7b:f6:fd:a5:20:8d:fe:
                    24:c3:1e:27:25:0b:97:e7:e5:7d:50:bb:75:da:92:
                    db:90:4f:f8:ba:01:97:80:c3:a9:8d:46:53:d7:bc:
                    d5:f0:c3:7d:30:d5:d8:94:29:cb:63:c0:cc:0a:d8:
                    91:a1:7f:88:fc
                ASN1 OID: prime256v1
                NIST CURVE: P-256
    Signature Algorithm: ecdsa-with-SHA256
         30:46:02:21:00:89:55:da:66:cf:7d:ba:96:3b:ed:be:16:cd:
         6d:70:ac:4c:cb:80:42:8e:71:66:c5:9d:6c:3d:4e:54:62:2c:
         28:02:21:00:d6:65:52:95:de:47:2b:e9:25:1f:c7:47:e3:36:
         8b:b5:d7:6e:95:13:5f:6c:b2:8e:7e:32:38:4e:dc:33:d8:7f
-----BEGIN CERTIFICATE-----
MIIBZzCCAQwCAQEwCgYIKoZIzj0EAwIwLjELMAkGA1UEBhMCUVExDTALBgNVBAoM
BE9yZzExEDAOBgNVBAMMB1Rlc3RDQTEwHhcNMTkwNjE4MDczNjEzWhcNNDcwNzAx
MDczNjEzWjBQMQswCQYDVQQGEwJRUTERMA8GA1UEBwwIY29tcHV0ZXIxDTALBgNV
BAoMBE9yZzExCzAJBgNVBAsMAmRiMRIwEAYDVQQDDAlsb2NhbGhvc3QwWTATBgcq
hkjOPQIBBggqhkjOPQMBBwNCAAT4/nxosFE3e/b9pSCN/iTDHiclC5fn5X1Qu3Xa
ktuQT/i6AZeAw6mNRlPXvNXww30w1diUKctjwMwK2JGhf4j8MAoGCCqGSM49BAMC
A0kAMEYCIQCJVdpmz326ljvtvhbNbXCsTMuAQo5xZsWdbD1OVGIsKAIhANZlUpXe
RyvpJR/HR+M2i7XXbpUTX2yyjn4yOE7cM9h/
-----END CERTIFICATE-----
