Certificate:
    Data:
        Version: 1 (0x0)
        Serial Number: 2 (0x2)
    Signature Algorithm: ecdsa-with-SHA256
        Issuer: C=QQ, O=Org1, CN=TestCA1
        Validity
            Not Before: Jun 18 07:36:13 2019 GMT
            Not After : Jul  1 07:36:13 2047 GMT
        Subject: C=QQ, L=computer, O=Org1, OU=Dev, CN=bouncer
        Subject Public Key Info:
            Public Key Algorithm: id-ecPublicKey
                Public-Key: (256 bit)
                pub: 
                    04:3a:f2:63:f1:e9:36:80:fd:1a:20:92:8c:67:f8:
                    64:10:7d:71:7b:18:d7:38:95:b0:11:e1:30:e9:6c:
                    3c:a6:d3:cf:92:ae:23:15:82:c9:51:66:cf:ca:12:
                    9d:3c:0a:3a:0b:e1:d5:c7:55:0a:1a:8e:59:39:f0:
                    e8:d2:a9:23:bf
                ASN1 OID: prime256v1
                NIST CURVE: P-256
    Signature Algorithm: ecdsa-with-SHA256
         30:46:02:21:00:ce:c7:7c:7a:63:22:4d:c3:62:11:5e:a2:c1:
         7a:09:72:40:8c:aa:ae:48:09:37:81:07:2a:7f:93:26:27:fb:
         56:02:21:00:c5:e5:9d:88:45:5e:b4:f2:ce:18:e6:74:ee:b9:
         43:30:7f:fb:aa:4a:92:43:a7:62:ed:2c:6d:f5:47:7e:76:d4
-----BEGIN CERTIFICATE-----
MIIBZjCCAQsCAQIwCgYIKoZIzj0EAwIwLjELMAkGA1UEBhMCUVExDTALBgNVBAoM
BE9yZzExEDAOBgNVBAMMB1Rlc3RDQTEwHhcNMTkwNjE4MDczNjEzWhcNNDcwNzAx
MDczNjEzWjBPMQswCQYDVQQGEwJRUTERMA8GA1UEBwwIY29tcHV0ZXIxDTALBgNV
BAoMBE9yZzExDDAKBgNVBAsMA0RldjEQMA4GA1UEAwwHYm91bmNlcjBZMBMGByqG
SM49AgEGCCqGSM49AwEHA0IABDryY/HpNoD9GiCSjGf4ZBB9cXsY1ziVsBHhMOls
PKbTz5KuIxWCyVFmz8oSnTwKOgvh1cdVChqOWTnw6NKpI78wCgYIKoZIzj0EAwID
SQAwRgIhAM7HfHpjIk3DYhFeosF6CXJAjKquSAk3gQcqf5MmJ/tWAiEAxeWdiEVe
tPLOGOZ07rlDMH/7qkqSQ6di7Sxt9Ud+dtQ=
-----END CERTIFICATE-----
