Certificate:
    Data:
        Version: 1 (0x0)
        Serial Number: 3 (0x3)
    Signature Algorithm: ecdsa-with-SHA256
        Issuer: C=QQ, O=Org1, CN=TestCA1
        Validity
            Not Before: Jun 18 07:36:13 2019 GMT
            Not After : Jul  1 07:36:13 2047 GMT
        Subject: C=QQ, L=computer, O=Org1, OU=Dev, CN=random
        Subject Public Key Info:
            Public Key Algorithm: id-ecPublicKey
                Public-Key: (256 bit)
                pub: 
                    04:13:0c:34:45:25:04:b9:66:2b:e7:07:91:1d:49:
                    48:e2:13:93:73:62:d9:ba:fe:f9:3b:f4:f2:85:9e:
                    26:4e:c7:4c:29:6d:31:bb:bd:6b:35:d8:53:f3:7d:
                    c5:e5:97:07:35:3c:d0:6e:6d:1e:69:64:71:28:3b:
                    95:21:21:20:60
                ASN1 OID: prime256v1
                NIST CURVE: P-256
    Signature Algorithm: ecdsa-with-SHA256
         30:45:02:21:00:af:a6:cf:aa:01:08:65:be:5f:e4:09:2f:43:
         7a:24:8d:a6:92:33:d7:83:2d:ce:65:03:84:dc:ec:f5:fa:e5:
         a9:02:20:76:c3:3d:1e:8d:9b:c0:ae:1b:7f:a6:a7:48:3c:38:
         96:2e:74:50:07:27:67:f7:86:21:44:2c:45:fb:d9:0d:12
-----BEGIN CERTIFICATE-----
MIIBZDCCAQoCAQMwCgYIKoZIzj0EAwIwLjELMAkGA1UEBhMCUVExDTALBgNVBAoM
BE9yZzExEDAOBgNVBAMMB1Rlc3RDQTEwHhcNMTkwNjE4MDczNjEzWhcNNDcwNzAx
MDczNjEzWjBOMQswCQYDVQQGEwJRUTERMA8GA1UEBwwIY29tcHV0ZXIxDTALBgNV
BAoMBE9yZzExDDAKBgNVBAsMA0RldjEPMA0GA1UEAwwGcmFuZG9tMFkwEwYHKoZI
zj0CAQYIKoZIzj0DAQcDQgAEEww0RSUEuWYr5weRHUlI4hOTc2LZuv75O/TyhZ4m
TsdMKW0xu71rNdhT833F5ZcHNTzQbm0eaWRxKDuVISEgYDAKBggqhkjOPQQDAgNI
ADBFAiEAr6bPqgEIZb5f5AkvQ3okjaaSM9eDLc5lA4Tc7PX65akCIHbDPR6Nm8Cu
G3+mp0g8OJYudFAHJ2f3hiFELEX72Q0S
-----END CERTIFICATE-----
